target datalayout = "e-m:e-p270:32:32-p271:32:32-p272:64:64-i64:64-i128:128-f80:128-n8:16:32:64-S128"
target triple = "x86_64-pc-linux-gnu"

%class.DfgVertex = type { ptr, %class.V3ListLinks, ptr, ptr, ptr, ptr, %class.VDfgType, i32, ptr }
%class.V3ListLinks = type { ptr, ptr }
%class.VDfgType = type { i16 }
%class.DfgEdge = type { ptr, ptr, ptr, ptr }
%class.DfgSel = type <{ %class.DfgVertexUnary, i32, [4 x i8] }>
%class.DfgVertexUnary = type { %class.DfgVertexWithArity }
%class.DfgVertexWithArity = type { %class.DfgVertex, %"struct.std::array.104" }
%"struct.std::array.104" = type { [1 x %class.DfgEdge] }

; Function Attrs: mustprogress nounwind uwtable
define linkonce_odr dso_local noundef i32 @_ZNK6DfgSel3lsbEv(ptr noundef nonnull align 8 dereferenceable(112) %0) #5 comdat align 2 {
  %2 = alloca ptr, align 8
  store ptr %0, ptr %2, align 8
  %3 = load ptr, ptr %2, align 8
  %4 = getelementptr inbounds %class.DfgSel, ptr %3, i32 0, i32 1
  %5 = load i32, ptr %4, align 8
  ret i32 %5
}

; Function Attrs: mustprogress uwtable
define dso_local noundef zeroext i1 @_ZNK6DfgSel10selfEqualsERK9DfgVertex(ptr noundef nonnull align 8 dereferenceable(112) %0, ptr noundef nonnull align 8 dereferenceable(72) %1) unnamed_addr #4 align 2 {
  %3 = alloca ptr, align 8
  %4 = alloca ptr, align 8
  store ptr %0, ptr %3, align 8
  store ptr %1, ptr %4, align 8
  %5 = load ptr, ptr %3, align 8
  %6 = call noundef i32 @_ZNK6DfgSel3lsbEv(ptr noundef nonnull align 8 dereferenceable(112) %5)
  %7 = load ptr, ptr %4, align 8
  %8 = call noundef ptr @_ZNK9DfgVertex2asI6DfgSelEEPKT_v(ptr noundef nonnull align 8 dereferenceable(72) %7)
  %9 = call noundef i32 @_ZNK6DfgSel3lsbEv(ptr noundef nonnull align 8 dereferenceable(112) %8)
  %10 = icmp eq i32 %6, %9
  ret i1 %10
}