; Function Attrs: mustprogress uwtable
define dso_local noundef zeroext i1 @_ZNK6DfgSel10selfEqualsERK9DfgVertex(ptr nocapture noundef nonnull readonly align 8 dereferenceable(112) %0, ptr noundef nonnull align 8 dereferenceable(72) %1) unnamed_addr #3 align 2 {
  %3 = getelementptr inbounds i8, ptr %0, i64 104
  %4 = load i32, ptr %3, align 8
  %5 = tail call noundef ptr @_ZNK9DfgVertex2asI6DfgSelEEPKT_v(ptr noundef nonnull align 8 dereferenceable(72) %1)
  %6 = getelementptr inbounds i8, ptr %5, i64 104
  %7 = load i32, ptr %6, align 8
  %8 = icmp eq i32 %4, %7
  ret i1 %8
}